target datalayout = "e-m:e-p270:32:32-p271:32:32-p272:64:64-i64:64-i128:128-f80:128-n8:16:32:64-S128"
target triple = "x86_64-pc-linux-gnu"

%struct._zend_executor_globals = type { %struct._zval_struct, %struct._zval_struct, [32 x ptr], ptr, ptr, %struct._zend_array, %struct._zend_array, ptr, i32, i32, ptr, ptr, ptr, ptr, ptr, ptr, i64, ptr, ptr, i32, i32, i64, i32, i32, i32, i8, i8, %struct.zend_atomic_bool_s, %struct.zend_atomic_bool_s, ptr, i64, ptr, ptr, %struct._zend_array, %struct._zend_array, i32, i8, %struct._zval_struct, %struct._zval_struct, %struct._zend_stack, %struct._zend_stack, %struct._zend_stack, ptr, i32, i32, i64, ptr, ptr, ptr, %struct._zend_objects_store, ptr, ptr, ptr, [3 x %struct._zend_op], ptr, i8, i8, i64, i32, i32, ptr, [16 x %struct._HashTableIterator], ptr, %union._zend_function, %struct._zend_op, %struct._zend_array, i64, %struct.zend_get_gc_buffer, ptr, ptr, ptr, i64, i8, i32, ptr, ptr, i64, %struct._zend_call_stack, i64, i64, [6 x ptr] }
%struct.zend_atomic_bool_s = type { i8 }
%struct._zval_struct = type { %union._zend_value, %union.anon, %union.anon.2 }
%union._zend_value = type { i64 }
%union.anon = type { i32 }
%union.anon.2 = type { i32 }
%struct._zend_stack = type { i32, i32, i32, ptr }
%struct._zend_objects_store = type { ptr, i32, i32, i32 }
%struct._HashTableIterator = type { ptr, i32, i32 }
%union._zend_function = type { %struct._zend_op_array }
%struct._zend_op_array = type { i8, [3 x i8], i32, ptr, ptr, ptr, i32, i32, ptr, ptr, ptr, ptr, i32, i32, i32, i32, ptr, ptr, ptr, ptr, ptr, i32, i32, ptr, ptr, ptr, i32, i32, i32, i32, ptr, ptr, [6 x ptr] }
%struct._zend_op = type { ptr, %union._znode_op, %union._znode_op, %union._znode_op, i32, i32, i8, i8, i8, i8 }
%union._znode_op = type { i32 }
%struct._zend_array = type { %struct._zend_refcounted_h, %union.anon.4, i32, %union.anon.6, i32, i32, i32, i32, i64, ptr }
%struct._zend_refcounted_h = type { i32, %union.anon.3 }
%union.anon.3 = type { i32 }
%union.anon.4 = type { i32 }
%union.anon.6 = type { ptr }
%struct.zend_get_gc_buffer = type { ptr, ptr, ptr }
%struct._zend_call_stack = type { ptr, i64 }
%struct._zend_execute_data = type { ptr, ptr, ptr, ptr, %struct._zval_struct, ptr, ptr, ptr, ptr }
%struct._zend_string = type { %struct._zend_refcounted_h, i64, i64, [1 x i8] }
%struct._xmlAttr = type { ptr, i32, ptr, ptr, ptr, ptr, ptr, ptr, ptr, ptr, i32, ptr }
%struct._dom_object = type { ptr, ptr, ptr, %struct._zend_object }
%struct._zend_object = type { %struct._zend_refcounted_h, i32, ptr, ptr, ptr, [1 x %struct._zval_struct] }
%struct._zend_class_entry = type { i8, ptr, %union.anon.8, i32, i32, i32, i32, ptr, ptr, ptr, %struct._zend_array, %struct._zend_array, %struct._zend_array, ptr, ptr, ptr, ptr, ptr, ptr, ptr, ptr, ptr, ptr, ptr, ptr, ptr, ptr, ptr, ptr, ptr, ptr, ptr, %union.anon.9, ptr, ptr, ptr, ptr, i32, i32, %union.anon.10, ptr, ptr, ptr, ptr, i32, ptr, ptr, %union.anon.11 }
%union.anon.8 = type { ptr }
%union.anon.9 = type { ptr }
%union.anon.10 = type { ptr }
%union.anon.11 = type { %struct.anon.12 }
%struct.anon.12 = type { ptr, i32, i32 }
%struct._php_libxml_node_ptr = type { ptr, i32, ptr }

@executor_globals = external global %struct._zend_executor_globals, align 8
@xmlFree = external global ptr, align 8
@.str.5 = private unnamed_addr constant [18 x i8] c"Couldn't fetch %s\00", align 1
@.str.15 = private unnamed_addr constant [3 x i8] c"sb\00", align 1

; Function Attrs: nounwind uwtable
define internal void @php_set_attribute_id(ptr noundef %0, i1 noundef zeroext %1) #0 {
  %3 = alloca ptr, align 8
  %4 = alloca i8, align 1
  %5 = alloca ptr, align 8
  store ptr %0, ptr %3, align 8
  %6 = zext i1 %1 to i8
  store i8 %6, ptr %4, align 1
  %7 = load i8, ptr %4, align 1
  %8 = trunc i8 %7 to i1
  %9 = zext i1 %8 to i32
  %10 = icmp eq i32 %9, 1
  br i1 %10, label %11, label %36

11:                                               ; preds = %2
  %12 = load ptr, ptr %3, align 8
  %13 = getelementptr inbounds %struct._xmlAttr, ptr %12, i32 0, i32 10
  %14 = load i32, ptr %13, align 8
  %15 = icmp ne i32 %14, 2
  br i1 %15, label %16, label %36

16:                                               ; preds = %11
  %17 = load ptr, ptr %3, align 8
  %18 = getelementptr inbounds %struct._xmlAttr, ptr %17, i32 0, i32 8
  %19 = load ptr, ptr %18, align 8
  %20 = load ptr, ptr %3, align 8
  %21 = getelementptr inbounds %struct._xmlAttr, ptr %20, i32 0, i32 3
  %22 = load ptr, ptr %21, align 8
  %23 = call ptr @xmlNodeListGetString(ptr noundef %19, ptr noundef %22, i32 noundef 1)
  store ptr %23, ptr %5, align 8
  %24 = load ptr, ptr %5, align 8
  %25 = icmp ne ptr %24, null
  br i1 %25, label %26, label %35

26:                                               ; preds = %16
  %27 = load ptr, ptr %3, align 8
  %28 = getelementptr inbounds %struct._xmlAttr, ptr %27, i32 0, i32 8
  %29 = load ptr, ptr %28, align 8
  %30 = load ptr, ptr %5, align 8
  %31 = load ptr, ptr %3, align 8
  %32 = call ptr @xmlAddID(ptr noundef null, ptr noundef %29, ptr noundef %30, ptr noundef %31)
  %33 = load ptr, ptr @xmlFree, align 8
  %34 = load ptr, ptr %5, align 8
  call void %33(ptr noundef %34)
  br label %35

35:                                               ; preds = %26, %16
  br label %55

36:                                               ; preds = %11, %2
  %37 = load i8, ptr %4, align 1
  %38 = trunc i8 %37 to i1
  %39 = zext i1 %38 to i32
  %40 = icmp eq i32 %39, 0
  br i1 %40, label %41, label %54

41:                                               ; preds = %36
  %42 = load ptr, ptr %3, align 8
  %43 = getelementptr inbounds %struct._xmlAttr, ptr %42, i32 0, i32 10
  %44 = load i32, ptr %43, align 8
  %45 = icmp eq i32 %44, 2
  br i1 %45, label %46, label %54

46:                                               ; preds = %41
  %47 = load ptr, ptr %3, align 8
  %48 = getelementptr inbounds %struct._xmlAttr, ptr %47, i32 0, i32 8
  %49 = load ptr, ptr %48, align 8
  %50 = load ptr, ptr %3, align 8
  %51 = call i32 @xmlRemoveID(ptr noundef %49, ptr noundef %50)
  %52 = load ptr, ptr %3, align 8
  %53 = getelementptr inbounds %struct._xmlAttr, ptr %52, i32 0, i32 10
  store i32 0, ptr %53, align 8
  br label %54

54:                                               ; preds = %46, %41, %36
  br label %55

55:                                               ; preds = %54, %35
  ret void
}

; Function Attrs: nounwind uwtable
define internal ptr @php_dom_obj_from_obj(ptr noundef %0) #0 {
  %2 = alloca ptr, align 8
  store ptr %0, ptr %2, align 8
  %3 = load ptr, ptr %2, align 8
  %4 = getelementptr inbounds i8, ptr %3, i64 -24
  ret ptr %4
}

; Function Attrs: nounwind uwtable
define hidden void @zim_DOMElement_setIdAttribute(ptr noundef %0, ptr noundef %1) #0 {
  %3 = alloca ptr, align 8
  %4 = alloca ptr, align 8
  %5 = alloca ptr, align 8
  %6 = alloca ptr, align 8
  %7 = alloca ptr, align 8
  %8 = alloca ptr, align 8
  %9 = alloca ptr, align 8
  %10 = alloca i64, align 8
  %11 = alloca i8, align 1
  store ptr %0, ptr %3, align 8
  store ptr %1, ptr %4, align 8
  %12 = load ptr, ptr %3, align 8
  %13 = getelementptr inbounds %struct._zend_execute_data, ptr %12, i32 0, i32 4
  store ptr %13, ptr %5, align 8
  %14 = load ptr, ptr %3, align 8
  %15 = getelementptr inbounds %struct._zend_execute_data, ptr %14, i32 0, i32 4
  %16 = getelementptr inbounds %struct._zval_struct, ptr %15, i32 0, i32 2
  %17 = load i32, ptr %16, align 4
  %18 = call i32 (i32, ptr, ...) @zend_parse_parameters(i32 noundef %17, ptr noundef @.str.15, ptr noundef %9, ptr noundef %10, ptr noundef %11)
  %19 = icmp eq i32 %18, -1
  br i1 %19, label %20, label %25

20:                                               ; preds = %2
  br label %21

21:                                               ; preds = %20
  %22 = load ptr, ptr getelementptr inbounds (%struct._zend_executor_globals, ptr @executor_globals, i32 0, i32 50), align 8
  %23 = icmp ne ptr %22, null
  call void @llvm.assume(i1 %23)
  br label %83

24:                                               ; No predecessors!
  br label %25

25:                                               ; preds = %24, %2
  %26 = load ptr, ptr %5, align 8
  %27 = getelementptr inbounds %struct._zval_struct, ptr %26, i32 0, i32 0
  %28 = load ptr, ptr %27, align 8
  %29 = call ptr @php_dom_obj_from_obj(ptr noundef %28)
  store ptr %29, ptr %8, align 8
  %30 = load ptr, ptr %8, align 8
  %31 = getelementptr inbounds %struct._dom_object, ptr %30, i32 0, i32 0
  %32 = load ptr, ptr %31, align 8
  %33 = icmp eq ptr %32, null
  %34 = xor i1 %33, true
  %35 = xor i1 %34, true
  %36 = zext i1 %35 to i32
  %37 = sext i32 %36 to i64
  %38 = icmp ne i64 %37, 0
  br i1 %38, label %39, label %52

39:                                               ; preds = %25
  %40 = load ptr, ptr %8, align 8
  %41 = getelementptr inbounds %struct._dom_object, ptr %40, i32 0, i32 3
  %42 = getelementptr inbounds %struct._zend_object, ptr %41, i32 0, i32 2
  %43 = load ptr, ptr %42, align 8
  %44 = getelementptr inbounds %struct._zend_class_entry, ptr %43, i32 0, i32 1
  %45 = load ptr, ptr %44, align 8
  %46 = getelementptr inbounds %struct._zend_string, ptr %45, i32 0, i32 3
  %47 = getelementptr inbounds [1 x i8], ptr %46, i64 0, i64 0
  call void (ptr, ptr, ...) @zend_throw_error(ptr noundef null, ptr noundef @.str.5, ptr noundef %47)
  br label %48

48:                                               ; preds = %39
  %49 = load ptr, ptr getelementptr inbounds (%struct._zend_executor_globals, ptr @executor_globals, i32 0, i32 50), align 8
  %50 = icmp ne ptr %49, null
  call void @llvm.assume(i1 %50)
  br label %83

51:                                               ; No predecessors!
  br label %52

52:                                               ; preds = %51, %25
  %53 = load ptr, ptr %8, align 8
  %54 = getelementptr inbounds %struct._dom_object, ptr %53, i32 0, i32 0
  %55 = load ptr, ptr %54, align 8
  %56 = getelementptr inbounds %struct._php_libxml_node_ptr, ptr %55, i32 0, i32 0
  %57 = load ptr, ptr %56, align 8
  store ptr %57, ptr %6, align 8
  %58 = load ptr, ptr %6, align 8
  %59 = load ptr, ptr %9, align 8
  %60 = call ptr @xmlHasNsProp(ptr noundef %58, ptr noundef %59, ptr noundef null)
  store ptr %60, ptr %7, align 8
  %61 = load ptr, ptr %7, align 8
  %62 = icmp eq ptr %61, null
  br i1 %62, label %68, label %63

63:                                               ; preds = %52
  %64 = load ptr, ptr %7, align 8
  %65 = getelementptr inbounds %struct._xmlAttr, ptr %64, i32 0, i32 1
  %66 = load i32, ptr %65, align 8
  %67 = icmp eq i32 %66, 16
  br i1 %67, label %68, label %73

68:                                               ; preds = %63, %52
  %69 = load ptr, ptr %8, align 8
  %70 = getelementptr inbounds %struct._dom_object, ptr %69, i32 0, i32 1
  %71 = load ptr, ptr %70, align 8
  %72 = call i32 @dom_get_strict_error(ptr noundef %71)
  call void @php_dom_throw_error(i32 noundef 8, i32 noundef %72)
  br label %77

73:                                               ; preds = %63
  %74 = load ptr, ptr %7, align 8
  %75 = load i8, ptr %11, align 1
  %76 = trunc i8 %75 to i1
  call void @php_set_attribute_id(ptr noundef %74, i1 noundef zeroext %76)
  br label %77

77:                                               ; preds = %73, %68
  br label %78

78:                                               ; preds = %77
  br label %79

79:                                               ; preds = %78
  %80 = load ptr, ptr %4, align 8
  %81 = getelementptr inbounds %struct._zval_struct, ptr %80, i32 0, i32 1
  store i32 1, ptr %81, align 8
  br label %82

82:                                               ; preds = %79
  br label %83

83:                                               ; preds = %82, %48, %21
  ret void
}