; Function Attrs: nounwind uwtable
define hidden void @zim_DOMElement_setIdAttribute(ptr nocapture noundef readonly %0, ptr nocapture noundef writeonly %1) local_unnamed_addr #0 {
  %3 = alloca ptr, align 8
  %4 = alloca i64, align 8
  %5 = alloca i8, align 1
  %6 = getelementptr inbounds i8, ptr %0, i64 44
  %7 = load i32, ptr %6, align 4
  %8 = call i32 (i32, ptr, ...) @zend_parse_parameters(i32 noundef %7, ptr noundef nonnull @.str.15, ptr noundef nonnull %3, ptr noundef nonnull %4, ptr noundef nonnull %5) #8
  %9 = icmp eq i32 %8, -1
  br i1 %9, label %10, label %13

10:                                               ; preds = %2
  %11 = load ptr, ptr getelementptr inbounds (%struct._zend_executor_globals, ptr @executor_globals, i64 0, i32 50), align 8
  %12 = icmp ne ptr %11, null
  call void @llvm.assume(i1 %12)
  br label %61

13:                                               ; preds = %2
  %14 = getelementptr inbounds i8, ptr %0, i64 32
  %15 = load ptr, ptr %14, align 8
  %16 = getelementptr inbounds i8, ptr %15, i64 -24
  %17 = load ptr, ptr %16, align 8
  %18 = icmp eq ptr %17, null
  br i1 %18, label %19, label %27

19:                                               ; preds = %13
  %20 = getelementptr inbounds i8, ptr %15, i64 16
  %21 = load ptr, ptr %20, align 8
  %22 = getelementptr inbounds i8, ptr %21, i64 8
  %23 = load ptr, ptr %22, align 8
  %24 = getelementptr inbounds i8, ptr %23, i64 24
  call void (ptr, ptr, ...) @zend_throw_error(ptr noundef null, ptr noundef nonnull @.str.5, ptr noundef nonnull %24) #8
  %25 = load ptr, ptr getelementptr inbounds (%struct._zend_executor_globals, ptr @executor_globals, i64 0, i32 50), align 8
  %26 = icmp ne ptr %25, null
  call void @llvm.assume(i1 %26)
  br label %61

27:                                               ; preds = %13
  %28 = load ptr, ptr %17, align 8
  %29 = load ptr, ptr %3, align 8
  %30 = call ptr @xmlHasNsProp(ptr noundef %28, ptr noundef %29, ptr noundef null) #8
  %31 = icmp eq ptr %30, null
  br i1 %31, label %36, label %32

32:                                               ; preds = %27
  %33 = getelementptr inbounds i8, ptr %30, i64 8
  %34 = load i32, ptr %33, align 8
  %35 = icmp eq i32 %34, 16
  br i1 %35, label %36, label %40

36:                                               ; preds = %32, %27
  %37 = getelementptr inbounds i8, ptr %15, i64 -16
  %38 = load ptr, ptr %37, align 8
  %39 = call i32 @dom_get_strict_error(ptr noundef %38) #8
  call void @php_dom_throw_error(i32 noundef 8, i32 noundef %39) #8
  br label %php_set_attribute_id.exit

40:                                               ; preds = %32
  %41 = load i8, ptr %5, align 1
  %42 = and i8 %41, 1
  %.not = icmp eq i8 %42, 0
  %43 = getelementptr inbounds i8, ptr %30, i64 80
  %44 = load i32, ptr %43, align 8
  %.not.i = icmp eq i32 %44, 2
  br i1 %.not, label %.critedge.i, label %45

45:                                               ; preds = %40
  br i1 %.not.i, label %php_set_attribute_id.exit, label %46

46:                                               ; preds = %45
  %47 = getelementptr inbounds i8, ptr %30, i64 64
  %48 = load ptr, ptr %47, align 8
  %49 = getelementptr inbounds i8, ptr %30, i64 24
  %50 = load ptr, ptr %49, align 8
  %51 = call ptr @xmlNodeListGetString(ptr noundef %48, ptr noundef %50, i32 noundef 1) #8
  %.not13.i = icmp eq ptr %51, null
  br i1 %.not13.i, label %php_set_attribute_id.exit, label %52

52:                                               ; preds = %46
  %53 = load ptr, ptr %47, align 8
  %54 = call ptr @xmlAddID(ptr noundef null, ptr noundef %53, ptr noundef nonnull %51, ptr noundef nonnull %30) #8
  %55 = load ptr, ptr @xmlFree, align 8
  call void %55(ptr noundef nonnull %51) #8
  br label %php_set_attribute_id.exit

.critedge.i:                                      ; preds = %40
  br i1 %.not.i, label %56, label %php_set_attribute_id.exit

56:                                               ; preds = %.critedge.i
  %57 = getelementptr inbounds i8, ptr %30, i64 64
  %58 = load ptr, ptr %57, align 8
  %59 = call i32 @xmlRemoveID(ptr noundef %58, ptr noundef nonnull %30) #8
  store i32 0, ptr %43, align 8
  br label %php_set_attribute_id.exit

php_set_attribute_id.exit:                        ; preds = %56, %.critedge.i, %52, %46, %45, %36
  %60 = getelementptr inbounds i8, ptr %1, i64 8
  store i32 1, ptr %60, align 8
  br label %61

61:                                               ; preds = %php_set_attribute_id.exit, %19, %10
  ret void
}